; ModuleID = '25/422.cpp'
source_filename = "25/422.cpp"
target datalayout = "e-m:e-p270:32:32-p271:32:32-p272:64:64-i64:64-f80:128-n8:16:32:64-S128"
target triple = "x86_64-pc-linux-gnu"

%"class.std::ios_base::Init" = type { i8 }
%"class.std::basic_istream" = type { i32 (...)**, i64, %"class.std::basic_ios" }
%"class.std::basic_ios" = type { %"class.std::ios_base", %"class.std::basic_ostream"*, i8, i8, %"class.std::basic_streambuf"*, %"class.std::ctype"*, %"class.std::num_put"*, %"class.std::num_get"* }
%"class.std::ios_base" = type { i32 (...)**, i64, i64, i32, i32, i32, %"struct.std::ios_base::_Callback_list"*, %"struct.std::ios_base::_Words", [8 x %"struct.std::ios_base::_Words"], i32, %"struct.std::ios_base::_Words"*, %"class.std::locale" }
%"struct.std::ios_base::_Callback_list" = type { %"struct.std::ios_base::_Callback_list"*, void (i32, %"class.std::ios_base"*, i32)*, i32, i32 }
%"struct.std::ios_base::_Words" = type { i8*, i64 }
%"class.std::locale" = type { %"class.std::locale::_Impl"* }
%"class.std::locale::_Impl" = type { i32, %"class.std::locale::facet"**, i64, %"class.std::locale::facet"**, i8** }
%"class.std::locale::facet" = type <{ i32 (...)**, i32, [4 x i8] }>
%"class.std::basic_ostream" = type { i32 (...)**, %"class.std::basic_ios" }
%"class.std::basic_streambuf" = type { i32 (...)**, i8*, i8*, i8*, i8*, i8*, i8*, %"class.std::locale" }
%"class.std::ctype" = type <{ %"class.std::locale::facet.base", [4 x i8], %struct.__locale_struct*, i8, [7 x i8], i32*, i32*, i16*, i8, [256 x i8], [256 x i8], i8, [6 x i8] }>
%"class.std::locale::facet.base" = type <{ i32 (...)**, i32 }>
%struct.__locale_struct = type { [13 x %struct.__locale_data*], i16*, i32*, i32*, [13 x i8*] }
%struct.__locale_data = type opaque
%"class.std::num_put" = type { %"class.std::locale::facet.base", [4 x i8] }
%"class.std::num_get" = type { %"class.std::locale::facet.base", [4 x i8] }

@_ZStL8__ioinit = internal global %"class.std::ios_base::Init" zeroinitializer, align 1
@__dso_handle = external hidden global i8
@n = dso_local global i32 0, align 4
@num = dso_local global i32 0, align 4
@a = dso_local global [40 x i32] zeroinitializer, align 16
@b = dso_local global [40 x i32] zeroinitializer, align 16
@c = dso_local global [40 x i32] zeroinitializer, align 16
@_ZSt3cin = external dso_local global %"class.std::basic_istream", align 8
@_ZSt4cout = external dso_local global %"class.std::basic_ostream", align 8
@llvm.global_ctors = appending global [1 x { i32, void ()*, i8* }] [{ i32, void ()*, i8* } { i32 65535, void ()* @_GLOBAL__sub_I_422.cpp, i8* null }]

; Function Attrs: noinline uwtable
define internal void @__cxx_global_var_init() #0 section ".text.startup" {
  call void @_ZNSt8ios_base4InitC1Ev(%"class.std::ios_base::Init"* @_ZStL8__ioinit)
  %1 = call i32 @__cxa_atexit(void (i8*)* bitcast (void (%"class.std::ios_base::Init"*)* @_ZNSt8ios_base4InitD1Ev to void (i8*)*), i8* getelementptr inbounds (%"class.std::ios_base::Init", %"class.std::ios_base::Init"* @_ZStL8__ioinit, i32 0, i32 0), i8* @__dso_handle) #3
  ret void
}

declare dso_local void @_ZNSt8ios_base4InitC1Ev(%"class.std::ios_base::Init"*) unnamed_addr #1

; Function Attrs: nounwind
declare dso_local void @_ZNSt8ios_base4InitD1Ev(%"class.std::ios_base::Init"*) unnamed_addr #2

; Function Attrs: nounwind
declare dso_local i32 @__cxa_atexit(void (i8*)*, i8*, i8*) #3

; Function Attrs: noinline nounwind uwtable
define dso_local void @_Z9calculatev() #4 {
  %1 = alloca i32, align 4
  call void @llvm.memset.p0i8.i64(i8* align 16 bitcast ([40 x i32]* @b to i8*), i8 0, i64 160, i1 false)
  store i32 0, i32* %1, align 4
  br label %2

2:                                                ; preds = %36, %0
  %3 = load i32, i32* %1, align 4
  %4 = icmp slt i32 %3, 40
  br i1 %4, label %5, label %39

5:                                                ; preds = %2
  %6 = load i32, i32* %1, align 4
  %7 = sext i32 %6 to i64
  %8 = getelementptr inbounds [40 x i32], [40 x i32]* @b, i64 0, i64 %7
  %9 = load i32, i32* %8, align 4
  %10 = load i32, i32* %1, align 4
  %11 = sext i32 %10 to i64
  %12 = getelementptr inbounds [40 x i32], [40 x i32]* @a, i64 0, i64 %11
  %13 = load i32, i32* %12, align 4
  %14 = mul nsw i32 %13, 2
  %15 = srem i32 %14, 10
  %16 = add nsw i32 %9, %15
  %17 = load i32, i32* %1, align 4
  %18 = sext i32 %17 to i64
  %19 = getelementptr inbounds [40 x i32], [40 x i32]* @b, i64 0, i64 %18
  store i32 %16, i32* %19, align 4
  %20 = load i32, i32* %1, align 4
  %21 = sext i32 %20 to i64
  %22 = getelementptr inbounds [40 x i32], [40 x i32]* @a, i64 0, i64 %21
  %23 = load i32, i32* %22, align 4
  %24 = mul nsw i32 %23, 2
  %25 = sdiv i32 %24, 10
  %26 = load i32, i32* %1, align 4
  %27 = add nsw i32 %26, 1
  %28 = sext i32 %27 to i64
  %29 = getelementptr inbounds [40 x i32], [40 x i32]* @b, i64 0, i64 %28
  %30 = load i32, i32* %29, align 4
  %31 = add nsw i32 %25, %30
  %32 = load i32, i32* %1, align 4
  %33 = add nsw i32 %32, 1
  %34 = sext i32 %33 to i64
  %35 = getelementptr inbounds [40 x i32], [40 x i32]* @b, i64 0, i64 %34
  store i32 %31, i32* %35, align 4
  br label %36

36:                                               ; preds = %5
  %37 = load i32, i32* %1, align 4
  %38 = add nsw i32 %37, 1
  store i32 %38, i32* %1, align 4
  br label %2

39:                                               ; preds = %2
  store i32 0, i32* %1, align 4
  br label %40

40:                                               ; preds = %51, %39
  %41 = load i32, i32* %1, align 4
  %42 = icmp slt i32 %41, 40
  br i1 %42, label %43, label %54

43:                                               ; preds = %40
  %44 = load i32, i32* %1, align 4
  %45 = sext i32 %44 to i64
  %46 = getelementptr inbounds [40 x i32], [40 x i32]* @b, i64 0, i64 %45
  %47 = load i32, i32* %46, align 4
  %48 = load i32, i32* %1, align 4
  %49 = sext i32 %48 to i64
  %50 = getelementptr inbounds [40 x i32], [40 x i32]* @a, i64 0, i64 %49
  store i32 %47, i32* %50, align 4
  br label %51

51:                                               ; preds = %43
  %52 = load i32, i32* %1, align 4
  %53 = add nsw i32 %52, 1
  store i32 %53, i32* %1, align 4
  br label %40

54:                                               ; preds = %40
  ret void
}

; Function Attrs: argmemonly nounwind willreturn
declare void @llvm.memset.p0i8.i64(i8* nocapture writeonly, i8, i64, i1 immarg) #5

; Function Attrs: noinline norecurse uwtable
define dso_local i32 @main() #6 {
  %1 = alloca i32, align 4
  %2 = alloca i32, align 4
  %3 = alloca i32, align 4
  store i32 0, i32* %1, align 4
  %4 = call dereferenceable(280) %"class.std::basic_istream"* @_ZNSirsERi(%"class.std::basic_istream"* @_ZSt3cin, i32* dereferenceable(4) @n)
  store i32 0, i32* %2, align 4
  store i32 0, i32* %3, align 4
  store i32 1, i32* getelementptr inbounds ([40 x i32], [40 x i32]* @a, i64 0, i64 0), align 16
  store i32 0, i32* %2, align 4
  br label %5

5:                                                ; preds = %11, %0
  %6 = load i32, i32* %2, align 4
  %7 = load i32, i32* @n, align 4
  %8 = sub nsw i32 %7, 1
  %9 = icmp sle i32 %6, %8
  br i1 %9, label %10, label %14

10:                                               ; preds = %5
  call void @_Z9calculatev()
  br label %11

11:                                               ; preds = %10
  %12 = load i32, i32* %2, align 4
  %13 = add nsw i32 %12, 1
  store i32 %13, i32* %2, align 4
  br label %5

14:                                               ; preds = %5
  store i32 39, i32* %2, align 4
  br label %15

15:                                               ; preds = %23, %14
  %16 = load i32, i32* %2, align 4
  %17 = sext i32 %16 to i64
  %18 = getelementptr inbounds [40 x i32], [40 x i32]* @a, i64 0, i64 %17
  %19 = load i32, i32* %18, align 4
  %20 = icmp eq i32 %19, 0
  br i1 %20, label %21, label %26

21:                                               ; preds = %15
  %22 = load i32, i32* %2, align 4
  store i32 %22, i32* %3, align 4
  br label %23

23:                                               ; preds = %21
  %24 = load i32, i32* %2, align 4
  %25 = add nsw i32 %24, -1
  store i32 %25, i32* %2, align 4
  br label %15

26:                                               ; preds = %15
  %27 = load i32, i32* %3, align 4
  %28 = sub nsw i32 %27, 1
  store i32 %28, i32* %2, align 4
  br label %29

29:                                               ; preds = %38, %26
  %30 = load i32, i32* %2, align 4
  %31 = icmp sge i32 %30, 0
  br i1 %31, label %32, label %41

32:                                               ; preds = %29
  %33 = load i32, i32* %2, align 4
  %34 = sext i32 %33 to i64
  %35 = getelementptr inbounds [40 x i32], [40 x i32]* @a, i64 0, i64 %34
  %36 = load i32, i32* %35, align 4
  %37 = call dereferenceable(272) %"class.std::basic_ostream"* @_ZNSolsEi(%"class.std::basic_ostream"* @_ZSt4cout, i32 %36)
  br label %38

38:                                               ; preds = %32
  %39 = load i32, i32* %2, align 4
  %40 = add nsw i32 %39, -1
  store i32 %40, i32* %2, align 4
  br label %29

41:                                               ; preds = %29
  ret i32 0
}

declare dso_local dereferenceable(280) %"class.std::basic_istream"* @_ZNSirsERi(%"class.std::basic_istream"*, i32* dereferenceable(4)) #1

declare dso_local dereferenceable(272) %"class.std::basic_ostream"* @_ZNSolsEi(%"class.std::basic_ostream"*, i32) #1

; Function Attrs: noinline uwtable
define internal void @_GLOBAL__sub_I_422.cpp() #0 section ".text.startup" {
  call void @__cxx_global_var_init()
  ret void
}


!llvm.module.flags = !{!0}
!llvm.ident = !{!1}

!0 = !{i32 1, !"wchar_size", i32 4}
!1 = !{!"clang version 10.0.0-4ubuntu1 "}
