; ModuleID = 'source-C-CXX/24/422.cpp'
source_filename = "source-C-CXX/24/422.cpp"
target datalayout = "e-m:e-p270:32:32-p271:32:32-p272:64:64-i64:64-f80:128-n8:16:32:64-S128"
target triple = "x86_64-pc-linux-gnu"

%"class.std::ios_base::Init" = type { i8 }
%"class.std::basic_istream" = type { i32 (...)**, i64, %"class.std::basic_ios" }
%"class.std::basic_ios" = type { %"class.std::ios_base", %"class.std::basic_ostream"*, i8, i8, %"class.std::basic_streambuf"*, %"class.std::ctype"*, %"class.std::num_put"*, %"class.std::num_get"* }
%"class.std::ios_base" = type { i32 (...)**, i64, i64, i32, i32, i32, %"struct.std::ios_base::_Callback_list"*, %"struct.std::ios_base::_Words", [8 x %"struct.std::ios_base::_Words"], i32, %"struct.std::ios_base::_Words"*, %"class.std::locale" }
%"struct.std::ios_base::_Callback_list" = type { %"struct.std::ios_base::_Callback_list"*, void (i32, %"class.std::ios_base"*, i32)*, i32, i32 }
%"struct.std::ios_base::_Words" = type { i8*, i64 }
%"class.std::locale" = type { %"class.std::locale::_Impl"* }
%"class.std::locale::_Impl" = type { i32, %"class.std::locale::facet"**, i64, %"class.std::locale::facet"**, i8** }
%"class.std::locale::facet" = type <{ i32 (...)**, i32, [4 x i8] }>
%"class.std::basic_ostream" = type { i32 (...)**, %"class.std::basic_ios" }
%"class.std::basic_streambuf" = type { i32 (...)**, i8*, i8*, i8*, i8*, i8*, i8*, %"class.std::locale" }
%"class.std::ctype" = type <{ %"class.std::locale::facet.base", [4 x i8], %struct.__locale_struct*, i8, [7 x i8], i32*, i32*, i16*, i8, [256 x i8], [256 x i8], i8, [6 x i8] }>
%"class.std::locale::facet.base" = type <{ i32 (...)**, i32 }>
%struct.__locale_struct = type { [13 x %struct.__locale_data*], i16*, i32*, i32*, [13 x i8*] }
%struct.__locale_data = type opaque
%"class.std::num_put" = type { %"class.std::locale::facet.base", [4 x i8] }
%"class.std::num_get" = type { %"class.std::locale::facet.base", [4 x i8] }

@_ZStL8__ioinit = internal global %"class.std::ios_base::Init" zeroinitializer, align 1
@__dso_handle = external hidden global i8
@n = dso_local global i32 0, align 4
@num = dso_local local_unnamed_addr global i32 0, align 4
@a = dso_local local_unnamed_addr global [40 x i32] zeroinitializer, align 16
@b = dso_local local_unnamed_addr global [40 x i32] zeroinitializer, align 16
@c = dso_local local_unnamed_addr global [40 x i32] zeroinitializer, align 16
@_ZSt3cin = external global %"class.std::basic_istream", align 8
@_ZSt4cout = external global %"class.std::basic_ostream", align 8
@llvm.global_ctors = appending global [1 x { i32, void ()*, i8* }] [{ i32, void ()*, i8* } { i32 65535, void ()* @_GLOBAL__sub_I_422.cpp, i8* null }]

declare void @_ZNSt8ios_base4InitC1Ev(%"class.std::ios_base::Init"* nonnull align 1 dereferenceable(1)) unnamed_addr #0

; Function Attrs: nounwind
declare void @_ZNSt8ios_base4InitD1Ev(%"class.std::ios_base::Init"* nonnull align 1 dereferenceable(1)) unnamed_addr #1

; Function Attrs: nofree nounwind
declare i32 @__cxa_atexit(void (i8*)*, i8*, i8*) local_unnamed_addr #2

; Function Attrs: mustprogress nofree nosync nounwind sspstrong uwtable
define dso_local void @_Z9calculatev() local_unnamed_addr #3 {
  tail call void @llvm.memset.p0i8.i64(i8* noundef nonnull align 16 dereferenceable(160) bitcast ([40 x i32]* @b to i8*), i8 0, i64 160, i1 false)
  br label %1

1:                                                ; preds = %1, %0
  %2 = phi i32 [ 0, %0 ], [ %14, %1 ]
  %3 = phi i64 [ 0, %0 ], [ %11, %1 ]
  %4 = getelementptr inbounds [40 x i32], [40 x i32]* @b, i64 0, i64 %3
  %5 = getelementptr inbounds [40 x i32], [40 x i32]* @a, i64 0, i64 %3
  %6 = load i32, i32* %5, align 4, !tbaa !5
  %7 = shl nsw i32 %6, 1
  %8 = srem i32 %7, 10
  %9 = add nsw i32 %8, %2
  store i32 %9, i32* %4, align 4, !tbaa !5
  %10 = sdiv i32 %6, 5
  %11 = add nuw nsw i64 %3, 1
  %12 = getelementptr inbounds [40 x i32], [40 x i32]* @b, i64 0, i64 %11
  %13 = load i32, i32* %12, align 4, !tbaa !5
  %14 = add nsw i32 %13, %10
  store i32 %14, i32* %12, align 4, !tbaa !5
  %15 = icmp eq i64 %11, 40
  br i1 %15, label %16, label %1, !llvm.loop !9

16:                                               ; preds = %1
  call void @llvm.memcpy.p0i8.p0i8.i64(i8* noundef nonnull align 16 dereferenceable(160) bitcast ([40 x i32]* @a to i8*), i8* noundef nonnull align 16 dereferenceable(160) bitcast ([40 x i32]* @b to i8*), i64 160, i1 false)
  ret void
}

; Function Attrs: argmemonly mustprogress nofree nounwind willreturn writeonly
declare void @llvm.memset.p0i8.i64(i8* nocapture writeonly, i8, i64, i1 immarg) #4

; Function Attrs: mustprogress norecurse sspstrong uwtable
define dso_local i32 @main() local_unnamed_addr #5 {
  %1 = tail call nonnull align 8 dereferenceable(16) %"class.std::basic_istream"* @_ZNSirsERi(%"class.std::basic_istream"* nonnull align 8 dereferenceable(16) @_ZSt3cin, i32* nonnull align 4 dereferenceable(4) @n)
  store i32 1, i32* getelementptr inbounds ([40 x i32], [40 x i32]* @a, i64 0, i64 0), align 16, !tbaa !5
  %2 = load i32, i32* @n, align 4, !tbaa !5
  %3 = icmp sgt i32 %2, 0
  br i1 %3, label %4, label %24

4:                                                ; preds = %0, %21
  %5 = phi i32 [ %22, %21 ], [ 0, %0 ]
  tail call void @llvm.memset.p0i8.i64(i8* noundef nonnull align 16 dereferenceable(160) bitcast ([40 x i32]* @b to i8*), i8 0, i64 160, i1 false) #8
  br label %6

6:                                                ; preds = %6, %4
  %7 = phi i32 [ 0, %4 ], [ %19, %6 ]
  %8 = phi i64 [ 0, %4 ], [ %16, %6 ]
  %9 = getelementptr inbounds [40 x i32], [40 x i32]* @b, i64 0, i64 %8
  %10 = getelementptr inbounds [40 x i32], [40 x i32]* @a, i64 0, i64 %8
  %11 = load i32, i32* %10, align 4, !tbaa !5
  %12 = shl nsw i32 %11, 1
  %13 = srem i32 %12, 10
  %14 = add nsw i32 %13, %7
  store i32 %14, i32* %9, align 4, !tbaa !5
  %15 = sdiv i32 %11, 5
  %16 = add nuw nsw i64 %8, 1
  %17 = getelementptr inbounds [40 x i32], [40 x i32]* @b, i64 0, i64 %16
  %18 = load i32, i32* %17, align 4, !tbaa !5
  %19 = add nsw i32 %18, %15
  store i32 %19, i32* %17, align 4, !tbaa !5
  %20 = icmp eq i64 %16, 40
  br i1 %20, label %21, label %6, !llvm.loop !9

21:                                               ; preds = %6
  tail call void @llvm.memcpy.p0i8.p0i8.i64(i8* noundef nonnull align 16 dereferenceable(160) bitcast ([40 x i32]* @a to i8*), i8* noundef nonnull align 16 dereferenceable(160) bitcast ([40 x i32]* @b to i8*), i64 160, i1 false) #8
  %22 = add nuw nsw i32 %5, 1
  %23 = icmp eq i32 %22, %2
  br i1 %23, label %24, label %4, !llvm.loop !11

24:                                               ; preds = %21, %0
  br label %25

25:                                               ; preds = %24, %25
  %26 = phi i64 [ %31, %25 ], [ 39, %24 ]
  %27 = phi i32 [ %32, %25 ], [ 0, %24 ]
  %28 = getelementptr inbounds [40 x i32], [40 x i32]* @a, i64 0, i64 %26
  %29 = load i32, i32* %28, align 4, !tbaa !5
  %30 = icmp eq i32 %29, 0
  %31 = add i64 %26, -1
  %32 = trunc i64 %26 to i32
  br i1 %30, label %25, label %33, !llvm.loop !12

33:                                               ; preds = %25
  %34 = icmp sgt i32 %27, 0
  br i1 %34, label %35, label %47

35:                                               ; preds = %33
  %36 = zext i32 %27 to i64
  br label %37

37:                                               ; preds = %35, %37
  %38 = phi i64 [ %36, %35 ], [ %46, %37 ]
  %39 = phi i32 [ %27, %35 ], [ %40, %37 ]
  %40 = add nsw i32 %39, -1
  %41 = zext i32 %40 to i64
  %42 = getelementptr inbounds [40 x i32], [40 x i32]* @a, i64 0, i64 %41
  %43 = load i32, i32* %42, align 4, !tbaa !5
  %44 = tail call nonnull align 8 dereferenceable(8) %"class.std::basic_ostream"* @_ZNSolsEi(%"class.std::basic_ostream"* nonnull align 8 dereferenceable(8) @_ZSt4cout, i32 %43)
  %45 = icmp sgt i64 %38, 1
  %46 = add nsw i64 %38, -1
  br i1 %45, label %37, label %47, !llvm.loop !13

47:                                               ; preds = %37, %33
  ret i32 0
}

declare nonnull align 8 dereferenceable(16) %"class.std::basic_istream"* @_ZNSirsERi(%"class.std::basic_istream"* nonnull align 8 dereferenceable(16), i32* nonnull align 4 dereferenceable(4)) local_unnamed_addr #0

declare nonnull align 8 dereferenceable(8) %"class.std::basic_ostream"* @_ZNSolsEi(%"class.std::basic_ostream"* nonnull align 8 dereferenceable(8), i32) local_unnamed_addr #0

; Function Attrs: sspstrong uwtable
define internal void @_GLOBAL__sub_I_422.cpp() #6 section ".text.startup" {
  tail call void @_ZNSt8ios_base4InitC1Ev(%"class.std::ios_base::Init"* nonnull align 1 dereferenceable(1) @_ZStL8__ioinit)
  %1 = tail call i32 @__cxa_atexit(void (i8*)* bitcast (void (%"class.std::ios_base::Init"*)* @_ZNSt8ios_base4InitD1Ev to void (i8*)*), i8* getelementptr inbounds (%"class.std::ios_base::Init", %"class.std::ios_base::Init"* @_ZStL8__ioinit, i64 0, i32 0), i8* nonnull @__dso_handle) #8
  ret void
}

; Function Attrs: argmemonly nofree nounwind willreturn
declare void @llvm.memcpy.p0i8.p0i8.i64(i8* noalias nocapture writeonly, i8* noalias nocapture readonly, i64, i1 immarg) #7


!llvm.module.flags = !{!0, !1, !2, !3}
!llvm.ident = !{!4}

!0 = !{i32 1, !"wchar_size", i32 4}
!1 = !{i32 7, !"PIC Level", i32 2}
!2 = !{i32 7, !"PIE Level", i32 2}
!3 = !{i32 7, !"uwtable", i32 1}
!4 = !{!"clang version 13.0.0"}
!5 = !{!6, !6, i64 0}
!6 = !{!"int", !7, i64 0}
!7 = !{!"omnipotent char", !8, i64 0}
!8 = !{!"Simple C++ TBAA"}
!9 = distinct !{!9, !10}
!10 = !{!"llvm.loop.mustprogress"}
!11 = distinct !{!11, !10}
!12 = distinct !{!12, !10}
!13 = distinct !{!13, !10}
